target datalayout = "e-m:e-p270:32:32-p271:32:32-p272:64:64-i64:64-i128:128-f80:128-n8:16:32:64-S128"
target triple = "x86_64-pc-linux-gnu"

%struct.FilterLinkInternal = type { %struct.FilterLink, ptr, %struct.FFFrameQueue, i32, i32, i64, i32, i32, i32, i32 }
%struct.FilterLink = type { %struct.AVFilterLink, ptr, i64, i64, i32, i32, i64, i64, i64, i64, %struct.AVRational, ptr }
%struct.AVFilterLink = type { ptr, ptr, ptr, ptr, i32, i32, i32, i32, %struct.AVRational, i32, i32, i32, %struct.AVChannelLayout, %struct.AVRational, ptr, i32, %struct.AVFilterFormatsConfig, %struct.AVFilterFormatsConfig }
%struct.AVChannelLayout = type { i32, i32, %union.anon.0, ptr }
%union.anon.0 = type { i64 }
%struct.AVFilterFormatsConfig = type { ptr, ptr, ptr, ptr, ptr }
%struct.AVRational = type { i32, i32 }
%struct.FFFrameQueue = type { ptr, i64, i64, i64, %struct.FFFrameBucket, i64, i64, i64, i64, i32 }
%struct.FFFrameBucket = type { ptr }
%struct.AVFrame = type { [8 x ptr], [8 x i32], ptr, i32, i32, i32, i32, i32, %struct.AVRational, i64, i64, %struct.AVRational, i32, ptr, i32, i32, [8 x ptr], ptr, i32, ptr, i32, i32, i32, i32, i32, i32, i32, i64, ptr, i32, ptr, ptr, i64, i64, i64, i64, ptr, %struct.AVChannelLayout, i64 }

; Function Attrs: inlinehint nounwind uwtable
define internal i64 @ff_framequeue_queued_frames(ptr noundef %0) #4 {
  %2 = alloca ptr, align 8
  store ptr %0, ptr %2, align 8, !tbaa !121
  %3 = load ptr, ptr %2, align 8, !tbaa !121
  %4 = getelementptr inbounds nuw %struct.FFFrameQueue, ptr %3, i32 0, i32 3
  %5 = load i64, ptr %4, align 8, !tbaa !123
  ret i64 %5
}

; Function Attrs: nounwind uwtable
define i32 @ff_inlink_check_available_frame(ptr noundef %0) #0 {
  %2 = alloca ptr, align 8
  %3 = alloca ptr, align 8
  store ptr %0, ptr %2, align 8, !tbaa !26
  call void @llvm.lifetime.start.p0(i64 8, ptr %3) #11
  %4 = load ptr, ptr %2, align 8, !tbaa !26
  %5 = call ptr @ff_link_internal(ptr noundef %4)
  store ptr %5, ptr %3, align 8, !tbaa !47
  %6 = load ptr, ptr %3, align 8, !tbaa !47
  %7 = getelementptr inbounds nuw %struct.FilterLinkInternal, ptr %6, i32 0, i32 2
  %8 = call i64 @ff_framequeue_queued_frames(ptr noundef %7)
  %9 = icmp ugt i64 %8, 0
  %10 = zext i1 %9 to i32
  call void @llvm.lifetime.end.p0(i64 8, ptr %3) #11
  ret i32 %10
}

; Function Attrs: inlinehint nounwind uwtable
define internal ptr @ff_link_internal(ptr noundef %0) #4 {
  %2 = alloca ptr, align 8
  store ptr %0, ptr %2, align 8, !tbaa !26
  %3 = load ptr, ptr %2, align 8, !tbaa !26
  ret ptr %3
}

; Function Attrs: nounwind uwtable
define i32 @ff_inlink_consume_frame(ptr noundef %0, ptr noundef %1) #0 {
  %3 = alloca i32, align 4
  %4 = alloca ptr, align 8
  %5 = alloca ptr, align 8
  %6 = alloca ptr, align 8
  %7 = alloca ptr, align 8
  %8 = alloca i32, align 4
  store ptr %0, ptr %4, align 8, !tbaa !26
  store ptr %1, ptr %5, align 8, !tbaa !205
  call void @llvm.lifetime.start.p0(i64 8, ptr %6) #11
  %9 = load ptr, ptr %4, align 8, !tbaa !26
  %10 = call ptr @ff_link_internal(ptr noundef %9)
  store ptr %10, ptr %6, align 8, !tbaa !47
  call void @llvm.lifetime.start.p0(i64 8, ptr %7) #11
  %11 = load ptr, ptr %5, align 8, !tbaa !205
  store ptr null, ptr %11, align 8, !tbaa !183
  %12 = load ptr, ptr %4, align 8, !tbaa !26
  %13 = call i32 @ff_inlink_check_available_frame(ptr noundef %12)
  %14 = icmp ne i32 %13, 0
  br i1 %14, label %16, label %15

15:                                               ; preds = %2
  store i32 0, ptr %3, align 4
  store i32 1, ptr %8, align 4
  br label %43

16:                                               ; preds = %2
  %17 = load ptr, ptr %6, align 8, !tbaa !47
  %18 = getelementptr inbounds nuw %struct.FilterLinkInternal, ptr %17, i32 0, i32 2
  %19 = getelementptr inbounds nuw %struct.FFFrameQueue, ptr %18, i32 0, i32 9
  %20 = load i32, ptr %19, align 8, !tbaa !207
  %21 = icmp ne i32 %20, 0
  br i1 %21, label %22, label %35

22:                                               ; preds = %16
  %23 = load ptr, ptr %6, align 8, !tbaa !47
  %24 = getelementptr inbounds nuw %struct.FilterLinkInternal, ptr %23, i32 0, i32 2
  %25 = call ptr @ff_framequeue_peek(ptr noundef %24, i64 noundef 0)
  store ptr %25, ptr %7, align 8, !tbaa !183
  %26 = load ptr, ptr %4, align 8, !tbaa !26
  %27 = load ptr, ptr %7, align 8, !tbaa !183
  %28 = getelementptr inbounds nuw %struct.AVFrame, ptr %27, i32 0, i32 5
  %29 = load i32, ptr %28, align 8, !tbaa !189
  %30 = load ptr, ptr %7, align 8, !tbaa !183
  %31 = getelementptr inbounds nuw %struct.AVFrame, ptr %30, i32 0, i32 5
  %32 = load i32, ptr %31, align 8, !tbaa !189
  %33 = load ptr, ptr %5, align 8, !tbaa !205
  %34 = call i32 @ff_inlink_consume_samples(ptr noundef %26, i32 noundef %29, i32 noundef %32, ptr noundef %33)
  store i32 %34, ptr %3, align 4
  store i32 1, ptr %8, align 4
  br label %43

35:                                               ; preds = %16
  %36 = load ptr, ptr %6, align 8, !tbaa !47
  %37 = getelementptr inbounds nuw %struct.FilterLinkInternal, ptr %36, i32 0, i32 2
  %38 = call ptr @ff_framequeue_take(ptr noundef %37)
  store ptr %38, ptr %7, align 8, !tbaa !183
  %39 = load ptr, ptr %6, align 8, !tbaa !47
  %40 = load ptr, ptr %7, align 8, !tbaa !183
  call void @consume_update(ptr noundef %39, ptr noundef %40)
  %41 = load ptr, ptr %7, align 8, !tbaa !183
  %42 = load ptr, ptr %5, align 8, !tbaa !205
  store ptr %41, ptr %42, align 8, !tbaa !183
  store i32 1, ptr %3, align 4
  store i32 1, ptr %8, align 4
  br label %43

43:                                               ; preds = %35, %22, %15
  call void @llvm.lifetime.end.p0(i64 8, ptr %7) #11
  call void @llvm.lifetime.end.p0(i64 8, ptr %6) #11
  %44 = load i32, ptr %3, align 4
  ret i32 %44
}