; Function Attrs: nounwind uwtable
define range(i32 -2147483648, 2) i32 @ff_inlink_consume_frame(ptr noundef %0, ptr noundef writeonly captures(none) initializes((0, 8)) %1) local_unnamed_addr #0 {
  store ptr null, ptr %1, align 8, !tbaa !151
  %3 = getelementptr i8, ptr %0, i64 312
  %.val.i = load i64, ptr %3, align 8, !tbaa !100
  %.not15 = icmp eq i64 %.val.i, 0
  br i1 %.not15, label %15, label %4

4:                                                ; preds = %2
  %5 = getelementptr inbounds nuw i8, ptr %0, i64 288
  %6 = getelementptr inbounds nuw i8, ptr %0, i64 360
  %7 = load i32, ptr %6, align 8, !tbaa !169
  %.not14 = icmp eq i32 %7, 0
  br i1 %.not14, label %13, label %8

8:                                                ; preds = %4
  %9 = tail call ptr @ff_framequeue_peek(ptr noundef nonnull %5, i64 noundef 0) #15
  %10 = getelementptr inbounds nuw i8, ptr %9, i64 112
  %11 = load i32, ptr %10, align 8, !tbaa !152
  %12 = tail call i32 @ff_inlink_consume_samples(ptr noundef nonnull %0, i32 noundef %11, i32 noundef %11, ptr noundef nonnull %1)
  br label %15

13:                                               ; preds = %4
  %14 = tail call ptr @ff_framequeue_take(ptr noundef nonnull %5) #15
  tail call fastcc void @consume_update(ptr noundef nonnull %0, ptr noundef %14)
  store ptr %14, ptr %1, align 8, !tbaa !151
  br label %15

15:                                               ; preds = %2, %13, %8
  %.0 = phi i32 [ %12, %8 ], [ 1, %13 ], [ 0, %2 ]
  ret i32 %.0
}